target datalayout = "e-m:e-p270:32:32-p271:32:32-p272:64:64-i64:64-i128:128-f80:128-n8:16:32:64-S128"
target triple = "x86_64-pc-linux-gnu"

%struct.AVChannelLayout = type { i32, i32, %union.anon.1, ptr }
%union.anon.1 = type { i64 }
%struct.AVRational = type { i32, i32 }
%struct.AVFilterContext = type { ptr, ptr, ptr, ptr, ptr, i32, ptr, ptr, i32, ptr, ptr, i32, i32, ptr, ptr, ptr, ptr, i32, ptr, i32, i32 }
%struct.ChromaShiftContext = type { ptr, i32, i32, i32, i32, i32, i32, i32, i32, i32, i32, i32, i32, i32, i32, i32, [4 x i32], [4 x i32], [4 x i32], ptr, i32, [2 x ptr] }
%struct.AVFrame = type { [8 x ptr], [8 x i32], ptr, i32, i32, i32, i32, i32, %struct.AVRational, i64, i64, %struct.AVRational, i32, ptr, i32, i32, [8 x ptr], ptr, i32, ptr, i32, i32, i32, i32, i32, i32, i32, i64, ptr, i32, ptr, ptr, i64, i64, i64, i64, ptr, %struct.AVChannelLayout, i64 }

; Function Attrs: alwaysinline nounwind willreturn memory(none) uwtable
define internal i32 @av_clip_c(i32 noundef %0, i32 noundef %1, i32 noundef %2) #5 {
  %4 = alloca i32, align 4
  %5 = alloca i32, align 4
  %6 = alloca i32, align 4
  %7 = alloca i32, align 4
  store i32 %0, ptr %5, align 4, !tbaa !43
  store i32 %1, ptr %6, align 4, !tbaa !43
  store i32 %2, ptr %7, align 4, !tbaa !43
  %8 = load i32, ptr %5, align 4, !tbaa !43
  %9 = load i32, ptr %6, align 4, !tbaa !43
  %10 = icmp slt i32 %8, %9
  br i1 %10, label %11, label %13

11:                                               ; preds = %3
  %12 = load i32, ptr %6, align 4, !tbaa !43
  store i32 %12, ptr %4, align 4
  br label %21

13:                                               ; preds = %3
  %14 = load i32, ptr %5, align 4, !tbaa !43
  %15 = load i32, ptr %7, align 4, !tbaa !43
  %16 = icmp sgt i32 %14, %15
  br i1 %16, label %17, label %19

17:                                               ; preds = %13
  %18 = load i32, ptr %7, align 4, !tbaa !43
  store i32 %18, ptr %4, align 4
  br label %21

19:                                               ; preds = %13
  %20 = load i32, ptr %5, align 4, !tbaa !43
  store i32 %20, ptr %4, align 4
  br label %21

21:                                               ; preds = %19, %17, %11
  %22 = load i32, ptr %4, align 4
  ret i32 %22
}

; Function Attrs: nounwind uwtable
define internal i32 @smear_slice16(ptr noundef %0, ptr noundef %1, i32 noundef %2, i32 noundef %3) #1 {
  %5 = alloca ptr, align 8
  %6 = alloca ptr, align 8
  %7 = alloca i32, align 4
  %8 = alloca i32, align 4
  %9 = alloca ptr, align 8
  %10 = alloca ptr, align 8
  %11 = alloca ptr, align 8
  %12 = alloca i32, align 4
  %13 = alloca i32, align 4
  %14 = alloca i32, align 4
  %15 = alloca i32, align 4
  %16 = alloca i32, align 4
  %17 = alloca i32, align 4
  %18 = alloca i32, align 4
  %19 = alloca i32, align 4
  %20 = alloca i32, align 4
  %21 = alloca i32, align 4
  %22 = alloca i32, align 4
  %23 = alloca i32, align 4
  %24 = alloca ptr, align 8
  %25 = alloca ptr, align 8
  %26 = alloca ptr, align 8
  %27 = alloca ptr, align 8
  %28 = alloca i32, align 4
  %29 = alloca i32, align 4
  %30 = alloca i32, align 4
  %31 = alloca i32, align 4
  %32 = alloca i32, align 4
  store ptr %0, ptr %5, align 8, !tbaa !23
  store ptr %1, ptr %6, align 8, !tbaa !45
  store i32 %2, ptr %7, align 4, !tbaa !43
  store i32 %3, ptr %8, align 4, !tbaa !43
  call void @llvm.lifetime.start.p0(i64 8, ptr %9) #6
  %33 = load ptr, ptr %5, align 8, !tbaa !23
  %34 = getelementptr inbounds nuw %struct.AVFilterContext, ptr %33, i32 0, i32 9
  %35 = load ptr, ptr %34, align 8, !tbaa !34
  store ptr %35, ptr %9, align 8, !tbaa !35
  call void @llvm.lifetime.start.p0(i64 8, ptr %10) #6
  %36 = load ptr, ptr %9, align 8, !tbaa !35
  %37 = getelementptr inbounds nuw %struct.ChromaShiftContext, ptr %36, i32 0, i32 19
  %38 = load ptr, ptr %37, align 8, !tbaa !39
  store ptr %38, ptr %10, align 8, !tbaa !9
  call void @llvm.lifetime.start.p0(i64 8, ptr %11) #6
  %39 = load ptr, ptr %6, align 8, !tbaa !45
  store ptr %39, ptr %11, align 8, !tbaa !9
  call void @llvm.lifetime.start.p0(i64 4, ptr %12) #6
  %40 = load ptr, ptr %10, align 8, !tbaa !9
  %41 = getelementptr inbounds nuw %struct.AVFrame, ptr %40, i32 0, i32 1
  %42 = getelementptr inbounds [8 x i32], ptr %41, i64 0, i64 1
  %43 = load i32, ptr %42, align 4, !tbaa !43
  %44 = sdiv i32 %43, 2
  store i32 %44, ptr %12, align 4, !tbaa !43
  call void @llvm.lifetime.start.p0(i64 4, ptr %13) #6
  %45 = load ptr, ptr %10, align 8, !tbaa !9
  %46 = getelementptr inbounds nuw %struct.AVFrame, ptr %45, i32 0, i32 1
  %47 = getelementptr inbounds [8 x i32], ptr %46, i64 0, i64 2
  %48 = load i32, ptr %47, align 8, !tbaa !43
  %49 = sdiv i32 %48, 2
  store i32 %49, ptr %13, align 4, !tbaa !43
  call void @llvm.lifetime.start.p0(i64 4, ptr %14) #6
  %50 = load ptr, ptr %11, align 8, !tbaa !9
  %51 = getelementptr inbounds nuw %struct.AVFrame, ptr %50, i32 0, i32 1
  %52 = getelementptr inbounds [8 x i32], ptr %51, i64 0, i64 1
  %53 = load i32, ptr %52, align 4, !tbaa !43
  %54 = sdiv i32 %53, 2
  store i32 %54, ptr %14, align 4, !tbaa !43
  call void @llvm.lifetime.start.p0(i64 4, ptr %15) #6
  %55 = load ptr, ptr %11, align 8, !tbaa !9
  %56 = getelementptr inbounds nuw %struct.AVFrame, ptr %55, i32 0, i32 1
  %57 = getelementptr inbounds [8 x i32], ptr %56, i64 0, i64 2
  %58 = load i32, ptr %57, align 8, !tbaa !43
  %59 = sdiv i32 %58, 2
  store i32 %59, ptr %15, align 4, !tbaa !43
  call void @llvm.lifetime.start.p0(i64 4, ptr %16) #6
  %60 = load ptr, ptr %9, align 8, !tbaa !35
  %61 = getelementptr inbounds nuw %struct.ChromaShiftContext, ptr %60, i32 0, i32 1
  %62 = load i32, ptr %61, align 8, !tbaa !87
  store i32 %62, ptr %16, align 4, !tbaa !43
  call void @llvm.lifetime.start.p0(i64 4, ptr %17) #6
  %63 = load ptr, ptr %9, align 8, !tbaa !35
  %64 = getelementptr inbounds nuw %struct.ChromaShiftContext, ptr %63, i32 0, i32 2
  %65 = load i32, ptr %64, align 4, !tbaa !88
  store i32 %65, ptr %17, align 4, !tbaa !43
  call void @llvm.lifetime.start.p0(i64 4, ptr %18) #6
  %66 = load ptr, ptr %9, align 8, !tbaa !35
  %67 = getelementptr inbounds nuw %struct.ChromaShiftContext, ptr %66, i32 0, i32 3
  %68 = load i32, ptr %67, align 8, !tbaa !89
  store i32 %68, ptr %18, align 4, !tbaa !43
  call void @llvm.lifetime.start.p0(i64 4, ptr %19) #6
  %69 = load ptr, ptr %9, align 8, !tbaa !35
  %70 = getelementptr inbounds nuw %struct.ChromaShiftContext, ptr %69, i32 0, i32 4
  %71 = load i32, ptr %70, align 4, !tbaa !90
  store i32 %71, ptr %19, align 4, !tbaa !43
  call void @llvm.lifetime.start.p0(i64 4, ptr %20) #6
  %72 = load ptr, ptr %9, align 8, !tbaa !35
  %73 = getelementptr inbounds nuw %struct.ChromaShiftContext, ptr %72, i32 0, i32 16
  %74 = getelementptr inbounds [4 x i32], ptr %73, i64 0, i64 1
  %75 = load i32, ptr %74, align 4, !tbaa !43
  store i32 %75, ptr %20, align 4, !tbaa !43
  call void @llvm.lifetime.start.p0(i64 4, ptr %21) #6
  %76 = load ptr, ptr %9, align 8, !tbaa !35
  %77 = getelementptr inbounds nuw %struct.ChromaShiftContext, ptr %76, i32 0, i32 17
  %78 = getelementptr inbounds [4 x i32], ptr %77, i64 0, i64 1
  %79 = load i32, ptr %78, align 4, !tbaa !43
  store i32 %79, ptr %21, align 4, !tbaa !43
  call void @llvm.lifetime.start.p0(i64 4, ptr %22) #6
  %80 = load i32, ptr %20, align 4, !tbaa !43
  %81 = load i32, ptr %7, align 4, !tbaa !43
  %82 = mul nsw i32 %80, %81
  %83 = load i32, ptr %8, align 4, !tbaa !43
  %84 = sdiv i32 %82, %83
  store i32 %84, ptr %22, align 4, !tbaa !43
  call void @llvm.lifetime.start.p0(i64 4, ptr %23) #6
  %85 = load i32, ptr %20, align 4, !tbaa !43
  %86 = load i32, ptr %7, align 4, !tbaa !43
  %87 = add nsw i32 %86, 1
  %88 = mul nsw i32 %85, %87
  %89 = load i32, ptr %8, align 4, !tbaa !43
  %90 = sdiv i32 %88, %89
  store i32 %90, ptr %23, align 4, !tbaa !43
  call void @llvm.lifetime.start.p0(i64 8, ptr %24) #6
  %91 = load ptr, ptr %10, align 8, !tbaa !9
  %92 = getelementptr inbounds nuw %struct.AVFrame, ptr %91, i32 0, i32 0
  %93 = getelementptr inbounds [8 x ptr], ptr %92, i64 0, i64 1
  %94 = load ptr, ptr %93, align 8, !tbaa !42
  store ptr %94, ptr %24, align 8, !tbaa !69
  call void @llvm.lifetime.start.p0(i64 8, ptr %25) #6
  %95 = load ptr, ptr %10, align 8, !tbaa !9
  %96 = getelementptr inbounds nuw %struct.AVFrame, ptr %95, i32 0, i32 0
  %97 = getelementptr inbounds [8 x ptr], ptr %96, i64 0, i64 2
  %98 = load ptr, ptr %97, align 8, !tbaa !42
  store ptr %98, ptr %25, align 8, !tbaa !69
  call void @llvm.lifetime.start.p0(i64 8, ptr %26) #6
  %99 = load ptr, ptr %11, align 8, !tbaa !9
  %100 = getelementptr inbounds nuw %struct.AVFrame, ptr %99, i32 0, i32 0
  %101 = getelementptr inbounds [8 x ptr], ptr %100, i64 0, i64 1
  %102 = load ptr, ptr %101, align 8, !tbaa !42
  %103 = load i32, ptr %22, align 4, !tbaa !43
  %104 = load i32, ptr %14, align 4, !tbaa !43
  %105 = mul nsw i32 %103, %104
  %106 = sext i32 %105 to i64
  %107 = getelementptr inbounds i16, ptr %102, i64 %106
  store ptr %107, ptr %26, align 8, !tbaa !69
  call void @llvm.lifetime.start.p0(i64 8, ptr %27) #6
  %108 = load ptr, ptr %11, align 8, !tbaa !9
  %109 = getelementptr inbounds nuw %struct.AVFrame, ptr %108, i32 0, i32 0
  %110 = getelementptr inbounds [8 x ptr], ptr %109, i64 0, i64 2
  %111 = load ptr, ptr %110, align 8, !tbaa !42
  %112 = load i32, ptr %22, align 4, !tbaa !43
  %113 = load i32, ptr %15, align 4, !tbaa !43
  %114 = mul nsw i32 %112, %113
  %115 = sext i32 %114 to i64
  %116 = getelementptr inbounds i16, ptr %111, i64 %115
  store ptr %116, ptr %27, align 8, !tbaa !69
  call void @llvm.lifetime.start.p0(i64 4, ptr %28) #6
  %117 = load i32, ptr %22, align 4, !tbaa !43
  store i32 %117, ptr %28, align 4, !tbaa !43
  br label %118

118:                                              ; preds = %190, %4
  %119 = load i32, ptr %28, align 4, !tbaa !43
  %120 = load i32, ptr %23, align 4, !tbaa !43
  %121 = icmp slt i32 %119, %120
  br i1 %121, label %123, label %122

122:                                              ; preds = %118
  store i32 2, ptr %29, align 4
  call void @llvm.lifetime.end.p0(i64 4, ptr %28) #6
  br label %193

123:                                              ; preds = %118
  call void @llvm.lifetime.start.p0(i64 4, ptr %30) #6
  %124 = load i32, ptr %28, align 4, !tbaa !43
  %125 = load i32, ptr %17, align 4, !tbaa !43
  %126 = sub nsw i32 %124, %125
  %127 = load i32, ptr %20, align 4, !tbaa !43
  %128 = sub nsw i32 %127, 1
  %129 = call i32 @av_clip_c(i32 noundef %126, i32 noundef 0, i32 noundef %128) #8
  %130 = load i32, ptr %12, align 4, !tbaa !43
  %131 = mul nsw i32 %129, %130
  store i32 %131, ptr %30, align 4, !tbaa !43
  call void @llvm.lifetime.start.p0(i64 4, ptr %31) #6
  %132 = load i32, ptr %28, align 4, !tbaa !43
  %133 = load i32, ptr %19, align 4, !tbaa !43
  %134 = sub nsw i32 %132, %133
  %135 = load i32, ptr %20, align 4, !tbaa !43
  %136 = sub nsw i32 %135, 1
  %137 = call i32 @av_clip_c(i32 noundef %134, i32 noundef 0, i32 noundef %136) #8
  %138 = load i32, ptr %13, align 4, !tbaa !43
  %139 = mul nsw i32 %137, %138
  store i32 %139, ptr %31, align 4, !tbaa !43
  call void @llvm.lifetime.start.p0(i64 4, ptr %32) #6
  store i32 0, ptr %32, align 4, !tbaa !43
  br label %140

140:                                              ; preds = %178, %123
  %141 = load i32, ptr %32, align 4, !tbaa !43
  %142 = load i32, ptr %21, align 4, !tbaa !43
  %143 = icmp slt i32 %141, %142
  br i1 %143, label %145, label %144

144:                                              ; preds = %140
  store i32 5, ptr %29, align 4
  call void @llvm.lifetime.end.p0(i64 4, ptr %32) #6
  br label %181

145:                                              ; preds = %140
  %146 = load ptr, ptr %24, align 8, !tbaa !69
  %147 = load i32, ptr %32, align 4, !tbaa !43
  %148 = load i32, ptr %16, align 4, !tbaa !43
  %149 = sub nsw i32 %147, %148
  %150 = load i32, ptr %21, align 4, !tbaa !43
  %151 = sub nsw i32 %150, 1
  %152 = call i32 @av_clip_c(i32 noundef %149, i32 noundef 0, i32 noundef %151) #8
  %153 = load i32, ptr %30, align 4, !tbaa !43
  %154 = add nsw i32 %152, %153
  %155 = sext i32 %154 to i64
  %156 = getelementptr inbounds i16, ptr %146, i64 %155
  %157 = load i16, ptr %156, align 2, !tbaa !71
  %158 = load ptr, ptr %26, align 8, !tbaa !69
  %159 = load i32, ptr %32, align 4, !tbaa !43
  %160 = sext i32 %159 to i64
  %161 = getelementptr inbounds i16, ptr %158, i64 %160
  store i16 %157, ptr %161, align 2, !tbaa !71
  %162 = load ptr, ptr %25, align 8, !tbaa !69
  %163 = load i32, ptr %32, align 4, !tbaa !43
  %164 = load i32, ptr %18, align 4, !tbaa !43
  %165 = sub nsw i32 %163, %164
  %166 = load i32, ptr %21, align 4, !tbaa !43
  %167 = sub nsw i32 %166, 1
  %168 = call i32 @av_clip_c(i32 noundef %165, i32 noundef 0, i32 noundef %167) #8
  %169 = load i32, ptr %31, align 4, !tbaa !43
  %170 = add nsw i32 %168, %169
  %171 = sext i32 %170 to i64
  %172 = getelementptr inbounds i16, ptr %162, i64 %171
  %173 = load i16, ptr %172, align 2, !tbaa !71
  %174 = load ptr, ptr %27, align 8, !tbaa !69
  %175 = load i32, ptr %32, align 4, !tbaa !43
  %176 = sext i32 %175 to i64
  %177 = getelementptr inbounds i16, ptr %174, i64 %176
  store i16 %173, ptr %177, align 2, !tbaa !71
  br label %178

178:                                              ; preds = %145
  %179 = load i32, ptr %32, align 4, !tbaa !43
  %180 = add nsw i32 %179, 1
  store i32 %180, ptr %32, align 4, !tbaa !43
  br label %140, !llvm.loop !95

181:                                              ; preds = %144
  %182 = load i32, ptr %14, align 4, !tbaa !43
  %183 = load ptr, ptr %26, align 8, !tbaa !69
  %184 = sext i32 %182 to i64
  %185 = getelementptr inbounds i16, ptr %183, i64 %184
  store ptr %185, ptr %26, align 8, !tbaa !69
  %186 = load i32, ptr %15, align 4, !tbaa !43
  %187 = load ptr, ptr %27, align 8, !tbaa !69
  %188 = sext i32 %186 to i64
  %189 = getelementptr inbounds i16, ptr %187, i64 %188
  store ptr %189, ptr %27, align 8, !tbaa !69
  call void @llvm.lifetime.end.p0(i64 4, ptr %31) #6
  call void @llvm.lifetime.end.p0(i64 4, ptr %30) #6
  br label %190

190:                                              ; preds = %181
  %191 = load i32, ptr %28, align 4, !tbaa !43
  %192 = add nsw i32 %191, 1
  store i32 %192, ptr %28, align 4, !tbaa !43
  br label %118, !llvm.loop !96

193:                                              ; preds = %122
  store i32 1, ptr %29, align 4
  call void @llvm.lifetime.end.p0(i64 8, ptr %27) #6
  call void @llvm.lifetime.end.p0(i64 8, ptr %26) #6
  call void @llvm.lifetime.end.p0(i64 8, ptr %25) #6
  call void @llvm.lifetime.end.p0(i64 8, ptr %24) #6
  call void @llvm.lifetime.end.p0(i64 4, ptr %23) #6
  call void @llvm.lifetime.end.p0(i64 4, ptr %22) #6
  call void @llvm.lifetime.end.p0(i64 4, ptr %21) #6
  call void @llvm.lifetime.end.p0(i64 4, ptr %20) #6
  call void @llvm.lifetime.end.p0(i64 4, ptr %19) #6
  call void @llvm.lifetime.end.p0(i64 4, ptr %18) #6
  call void @llvm.lifetime.end.p0(i64 4, ptr %17) #6
  call void @llvm.lifetime.end.p0(i64 4, ptr %16) #6
  call void @llvm.lifetime.end.p0(i64 4, ptr %15) #6
  call void @llvm.lifetime.end.p0(i64 4, ptr %14) #6
  call void @llvm.lifetime.end.p0(i64 4, ptr %13) #6
  call void @llvm.lifetime.end.p0(i64 4, ptr %12) #6
  call void @llvm.lifetime.end.p0(i64 8, ptr %11) #6
  call void @llvm.lifetime.end.p0(i64 8, ptr %10) #6
  call void @llvm.lifetime.end.p0(i64 8, ptr %9) #6
  ret i32 0
}