; Function Attrs: nofree norecurse nosync nounwind memory(readwrite, inaccessiblemem: none) uwtable
define internal noundef i32 @smear_slice16(ptr noundef readonly captures(none) %0, ptr noundef readonly captures(none) %1, i32 noundef %2, i32 noundef %3) #4 {
  %5 = getelementptr inbounds nuw i8, ptr %0, i64 72
  %6 = load ptr, ptr %5, align 8, !tbaa !33
  %7 = getelementptr inbounds nuw i8, ptr %6, i64 120
  %8 = load ptr, ptr %7, align 8, !tbaa !36
  %9 = getelementptr inbounds nuw i8, ptr %8, i64 68
  %10 = load i32, ptr %9, align 4, !tbaa !40
  %11 = sdiv i32 %10, 2
  %12 = getelementptr inbounds nuw i8, ptr %8, i64 72
  %13 = load i32, ptr %12, align 8, !tbaa !40
  %14 = sdiv i32 %13, 2
  %15 = getelementptr inbounds nuw i8, ptr %6, i64 8
  %16 = load i32, ptr %15, align 8, !tbaa !80
  %17 = getelementptr inbounds nuw i8, ptr %6, i64 12
  %18 = load i32, ptr %17, align 4, !tbaa !81
  %19 = getelementptr inbounds nuw i8, ptr %6, i64 16
  %20 = load i32, ptr %19, align 8, !tbaa !82
  %21 = getelementptr inbounds nuw i8, ptr %6, i64 20
  %22 = load i32, ptr %21, align 4, !tbaa !83
  %23 = getelementptr inbounds nuw i8, ptr %6, i64 72
  %24 = load i32, ptr %23, align 4, !tbaa !40
  %25 = getelementptr inbounds nuw i8, ptr %6, i64 88
  %26 = load i32, ptr %25, align 4, !tbaa !40
  %27 = mul nsw i32 %24, %2
  %28 = sdiv i32 %27, %3
  %29 = add nsw i32 %2, 1
  %30 = mul nsw i32 %24, %29
  %31 = sdiv i32 %30, %3
  %32 = getelementptr inbounds nuw i8, ptr %8, i64 8
  %33 = load ptr, ptr %32, align 8, !tbaa !39
  %34 = getelementptr inbounds nuw i8, ptr %8, i64 16
  %35 = load ptr, ptr %34, align 8, !tbaa !39
  %36 = icmp slt i32 %28, %31
  br i1 %36, label %.lr.ph74, label %._crit_edge75

.lr.ph74:                                         ; preds = %4
  %37 = getelementptr inbounds nuw i8, ptr %1, i64 72
  %38 = load i32, ptr %37, align 8, !tbaa !40
  %39 = sdiv i32 %38, 2
  %40 = getelementptr inbounds nuw i8, ptr %1, i64 68
  %41 = load i32, ptr %40, align 4, !tbaa !40
  %42 = sdiv i32 %41, 2
  %43 = add nsw i32 %24, -1
  %44 = icmp sgt i32 %26, 0
  %45 = add nsw i32 %26, -1
  %46 = sext i32 %42 to i64
  %47 = sext i32 %39 to i64
  br i1 %44, label %.lr.ph.us.preheader, label %._crit_edge75

.lr.ph.us.preheader:                              ; preds = %.lr.ph74
  %48 = getelementptr inbounds nuw i8, ptr %1, i64 8
  %49 = load ptr, ptr %48, align 8, !tbaa !39
  %50 = mul nsw i32 %28, %42
  %51 = sext i32 %50 to i64
  %52 = getelementptr inbounds i16, ptr %49, i64 %51
  %53 = getelementptr inbounds nuw i8, ptr %1, i64 16
  %54 = load ptr, ptr %53, align 8, !tbaa !39
  %55 = mul nsw i32 %28, %39
  %56 = sext i32 %55 to i64
  %57 = getelementptr inbounds i16, ptr %54, i64 %56
  %58 = sext i32 %16 to i64
  %59 = sext i32 %20 to i64
  %wide.trip.count = zext nneg i32 %26 to i64
  br label %.lr.ph.us

.lr.ph.us:                                        ; preds = %.lr.ph.us.preheader, %._crit_edge.us
  %.05972.us = phi ptr [ %83, %._crit_edge.us ], [ %52, %.lr.ph.us.preheader ]
  %.06071.us = phi ptr [ %84, %._crit_edge.us ], [ %57, %.lr.ph.us.preheader ]
  %.06170.us = phi i32 [ %85, %._crit_edge.us ], [ %28, %.lr.ph.us.preheader ]
  %60 = sub nsw i32 %.06170.us, %18
  %61 = icmp slt i32 %60, 0
  %..i.us = tail call i32 @llvm.smin.i32(i32 %60, i32 %43)
  %.0.i.us = select i1 %61, i32 0, i32 %..i.us
  %62 = mul nsw i32 %.0.i.us, %11
  %63 = sub nsw i32 %.06170.us, %22
  %64 = icmp slt i32 %63, 0
  %..i63.us = tail call i32 @llvm.smin.i32(i32 %63, i32 %43)
  %.0.i64.us = select i1 %64, i32 0, i32 %..i63.us
  %65 = mul nsw i32 %.0.i64.us, %14
  br label %66

66:                                               ; preds = %.lr.ph.us, %66
  %indvars.iv = phi i64 [ 0, %.lr.ph.us ], [ %indvars.iv.next, %66 ]
  %67 = sub nsw i64 %indvars.iv, %58
  %68 = icmp slt i64 %67, 0
  %69 = trunc nsw i64 %67 to i32
  %..i65.us = tail call i32 @llvm.smin.i32(i32 %69, i32 %45)
  %.0.i66.us = select i1 %68, i32 0, i32 %..i65.us
  %70 = add nsw i32 %.0.i66.us, %62
  %71 = sext i32 %70 to i64
  %72 = getelementptr inbounds i16, ptr %33, i64 %71
  %73 = load i16, ptr %72, align 2, !tbaa !64
  %74 = getelementptr inbounds nuw i16, ptr %.05972.us, i64 %indvars.iv
  store i16 %73, ptr %74, align 2, !tbaa !64
  %75 = sub nsw i64 %indvars.iv, %59
  %76 = icmp slt i64 %75, 0
  %77 = trunc nsw i64 %75 to i32
  %..i67.us = tail call i32 @llvm.smin.i32(i32 %77, i32 %45)
  %.0.i68.us = select i1 %76, i32 0, i32 %..i67.us
  %78 = add nsw i32 %.0.i68.us, %65
  %79 = sext i32 %78 to i64
  %80 = getelementptr inbounds i16, ptr %35, i64 %79
  %81 = load i16, ptr %80, align 2, !tbaa !64
  %82 = getelementptr inbounds nuw i16, ptr %.06071.us, i64 %indvars.iv
  store i16 %81, ptr %82, align 2, !tbaa !64
  %indvars.iv.next = add nuw nsw i64 %indvars.iv, 1
  %exitcond.not = icmp eq i64 %indvars.iv.next, %wide.trip.count
  br i1 %exitcond.not, label %._crit_edge.us, label %66, !llvm.loop !88

._crit_edge.us:                                   ; preds = %66
  %83 = getelementptr inbounds i16, ptr %.05972.us, i64 %46
  %84 = getelementptr inbounds i16, ptr %.06071.us, i64 %47
  %85 = add nsw i32 %.06170.us, 1
  %exitcond78.not = icmp eq i32 %85, %31
  br i1 %exitcond78.not, label %._crit_edge75, label %.lr.ph.us, !llvm.loop !89

._crit_edge75:                                    ; preds = %._crit_edge.us, %.lr.ph74, %4
  ret i32 0
}